target datalayout = "e-m:e-p270:32:32-p271:32:32-p272:64:64-i64:64-i128:128-f80:128-n8:16:32:64-S128"
target triple = "x86_64-pc-linux-gnu"

%struct.dirent = type { i64, i64, i16, i8, [256 x i8] }

; Function Attrs: nounwind uwtable
define hidden i32 @uv__fs_get_dirent_type(ptr noundef %0) #0 {
  %2 = alloca ptr, align 8
  %3 = alloca i32, align 4
  store ptr %0, ptr %2, align 8
  call void @llvm.lifetime.start.p0(i64 4, ptr %3) #13
  %4 = load ptr, ptr %2, align 8
  %5 = getelementptr inbounds nuw %struct.dirent, ptr %4, i32 0, i32 3
  %6 = load i8, ptr %5, align 2
  %7 = zext i8 %6 to i32
  switch i32 %7, label %15 [
    i32 4, label %8
    i32 8, label %9
    i32 10, label %10
    i32 1, label %11
    i32 12, label %12
    i32 2, label %13
    i32 6, label %14
  ]

8:                                                ; preds = %1
  store i32 2, ptr %3, align 4
  br label %16

9:                                                ; preds = %1
  store i32 1, ptr %3, align 4
  br label %16

10:                                               ; preds = %1
  store i32 3, ptr %3, align 4
  br label %16

11:                                               ; preds = %1
  store i32 4, ptr %3, align 4
  br label %16

12:                                               ; preds = %1
  store i32 5, ptr %3, align 4
  br label %16

13:                                               ; preds = %1
  store i32 6, ptr %3, align 4
  br label %16

14:                                               ; preds = %1
  store i32 7, ptr %3, align 4
  br label %16

15:                                               ; preds = %1
  store i32 0, ptr %3, align 4
  br label %16

16:                                               ; preds = %15, %14, %13, %12, %11, %10, %9, %8
  %17 = load i32, ptr %3, align 4
  call void @llvm.lifetime.end.p0(i64 4, ptr %3) #13
  ret i32 %17
}